target datalayout = "e-m:e-p270:32:32-p271:32:32-p272:64:64-i64:64-i128:128-f80:128-n8:16:32:64-S128"
target triple = "x86_64-pc-linux-gnu"

%"class.g2o::BaseVariableSizedEdge" = type { %"class.g2o::BaseEdge", %"class.std::vector.28", %"class.std::vector.33" }
%"class.g2o::BaseEdge" = type { %"class.g2o::OptimizableGraph::Edge", %"class.Eigen::Matrix", %"class.Eigen::Matrix.18", %"class.Eigen::Matrix" }
%"class.g2o::OptimizableGraph::Edge" = type { %"class.g2o::HyperGraph::Edge.base", %"class.g2o::HyperGraph::DataContainer", i32, i32, ptr, i64, %"class.std::vector.1", %"class.std::vector.6", %"class.std::vector.11", %"class.std::vector.1" }
%"class.g2o::HyperGraph::Edge.base" = type <{ %"struct.g2o::HyperGraph::HyperGraphElement", %"class.std::vector", i32 }>
%"struct.g2o::HyperGraph::HyperGraphElement" = type { ptr }
%"class.std::vector" = type { %"struct.std::_Vector_base" }
%"struct.std::_Vector_base" = type { %"struct.std::_Vector_base<g2o::HyperGraph::Vertex *, std::allocator<g2o::HyperGraph::Vertex *>>::_Vector_impl" }
%"struct.std::_Vector_base<g2o::HyperGraph::Vertex *, std::allocator<g2o::HyperGraph::Vertex *>>::_Vector_impl" = type { %"struct.std::_Vector_base<g2o::HyperGraph::Vertex *, std::allocator<g2o::HyperGraph::Vertex *>>::_Vector_impl_data" }
%"struct.std::_Vector_base<g2o::HyperGraph::Vertex *, std::allocator<g2o::HyperGraph::Vertex *>>::_Vector_impl_data" = type { ptr, ptr, ptr }
%"class.g2o::HyperGraph::DataContainer" = type { ptr, ptr }
%"class.std::vector.6" = type { %"struct.std::_Vector_base.7" }
%"struct.std::_Vector_base.7" = type { %"struct.std::_Vector_base<std::__cxx11::basic_string<char>, std::allocator<std::__cxx11::basic_string<char>>>::_Vector_impl" }
%"struct.std::_Vector_base<std::__cxx11::basic_string<char>, std::allocator<std::__cxx11::basic_string<char>>>::_Vector_impl" = type { %"struct.std::_Vector_base<std::__cxx11::basic_string<char>, std::allocator<std::__cxx11::basic_string<char>>>::_Vector_impl_data" }
%"struct.std::_Vector_base<std::__cxx11::basic_string<char>, std::allocator<std::__cxx11::basic_string<char>>>::_Vector_impl_data" = type { ptr, ptr, ptr }
%"class.std::vector.11" = type { %"struct.std::_Vector_base.12" }
%"struct.std::_Vector_base.12" = type { %"struct.std::_Vector_base<g2o::Parameter **, std::allocator<g2o::Parameter **>>::_Vector_impl" }
%"struct.std::_Vector_base<g2o::Parameter **, std::allocator<g2o::Parameter **>>::_Vector_impl" = type { %"struct.std::_Vector_base<g2o::Parameter **, std::allocator<g2o::Parameter **>>::_Vector_impl_data" }
%"struct.std::_Vector_base<g2o::Parameter **, std::allocator<g2o::Parameter **>>::_Vector_impl_data" = type { ptr, ptr, ptr }
%"class.std::vector.1" = type { %"struct.std::_Vector_base.2" }
%"struct.std::_Vector_base.2" = type { %"struct.std::_Vector_base<int, std::allocator<int>>::_Vector_impl" }
%"struct.std::_Vector_base<int, std::allocator<int>>::_Vector_impl" = type { %"struct.std::_Vector_base<int, std::allocator<int>>::_Vector_impl_data" }
%"struct.std::_Vector_base<int, std::allocator<int>>::_Vector_impl_data" = type { ptr, ptr, ptr }
%"class.Eigen::Matrix.18" = type { %"class.Eigen::PlainObjectBase.19" }
%"class.Eigen::PlainObjectBase.19" = type { %"class.Eigen::DenseStorage.26" }
%"class.Eigen::DenseStorage.26" = type { %"struct.Eigen::internal::plain_array.27" }
%"struct.Eigen::internal::plain_array.27" = type { [16 x double] }
%"class.Eigen::Matrix" = type { %"class.Eigen::PlainObjectBase" }
%"class.Eigen::PlainObjectBase" = type { %"class.Eigen::DenseStorage" }
%"class.Eigen::DenseStorage" = type { %"struct.Eigen::internal::plain_array" }
%"struct.Eigen::internal::plain_array" = type { [4 x double] }
%"class.std::vector.28" = type { %"struct.std::_Vector_base.29" }
%"struct.std::_Vector_base.29" = type { %"struct.std::_Vector_base<g2o::BaseVariableSizedEdge<4, Eigen::Matrix<double, 4, 1>>::HessianHelper, std::allocator<g2o::BaseVariableSizedEdge<4, Eigen::Matrix<double, 4, 1>>::HessianHelper>>::_Vector_impl" }
%"struct.std::_Vector_base<g2o::BaseVariableSizedEdge<4, Eigen::Matrix<double, 4, 1>>::HessianHelper, std::allocator<g2o::BaseVariableSizedEdge<4, Eigen::Matrix<double, 4, 1>>::HessianHelper>>::_Vector_impl" = type { %"struct.std::_Vector_base<g2o::BaseVariableSizedEdge<4, Eigen::Matrix<double, 4, 1>>::HessianHelper, std::allocator<g2o::BaseVariableSizedEdge<4, Eigen::Matrix<double, 4, 1>>::HessianHelper>>::_Vector_impl_data" }
%"struct.std::_Vector_base<g2o::BaseVariableSizedEdge<4, Eigen::Matrix<double, 4, 1>>::HessianHelper, std::allocator<g2o::BaseVariableSizedEdge<4, Eigen::Matrix<double, 4, 1>>::HessianHelper>>::_Vector_impl_data" = type { ptr, ptr, ptr }
%"class.std::vector.33" = type { %"struct.std::_Vector_base.34" }
%"struct.std::_Vector_base.34" = type { %"struct.std::_Vector_base<Eigen::Map<Eigen::Matrix<double, -1, -1>>, std::allocator<Eigen::Map<Eigen::Matrix<double, -1, -1>>>>::_Vector_impl" }
%"struct.std::_Vector_base<Eigen::Map<Eigen::Matrix<double, -1, -1>>, std::allocator<Eigen::Map<Eigen::Matrix<double, -1, -1>>>>::_Vector_impl" = type { %"struct.std::_Vector_base<Eigen::Map<Eigen::Matrix<double, -1, -1>>, std::allocator<Eigen::Map<Eigen::Matrix<double, -1, -1>>>>::_Vector_impl_data" }
%"struct.std::_Vector_base<Eigen::Map<Eigen::Matrix<double, -1, -1>>, std::allocator<Eigen::Map<Eigen::Matrix<double, -1, -1>>>>::_Vector_impl_data" = type { ptr, ptr, ptr }

; Function Attrs: mustprogress nounwind uwtable
define linkonce_odr void @_ZN5Eigen8internal28check_static_allocation_sizeIdLi16EEEvv() #4 comdat {
  ret void
}

; Function Attrs: mustprogress nounwind uwtable
define linkonce_odr void @_ZN5Eigen8internal28check_static_allocation_sizeIdLi4EEEvv() #4 comdat {
  ret void
}

; Function Attrs: mustprogress nounwind uwtable
define linkonce_odr void @_ZNSt15__new_allocatorIN5Eigen3MapINS0_6MatrixIdLin1ELin1ELi0ELin1ELin1EEELi0ENS0_6StrideILi0ELi0EEEEEEC2Ev(ptr noundef nonnull align 1 dereferenceable(1) %0) unnamed_addr #4 comdat align 2 {
  %2 = alloca ptr, align 8
  store ptr %0, ptr %2, align 8
  ret void
}

; Function Attrs: mustprogress nounwind uwtable
define linkonce_odr void @_ZNSt15__new_allocatorIN3g2o21BaseVariableSizedEdgeILi4EN5Eigen6MatrixIdLi4ELi1ELi0ELi4ELi1EEEE13HessianHelperEEC2Ev(ptr noundef nonnull align 1 dereferenceable(1) %0) unnamed_addr #4 comdat align 2 {
  %2 = alloca ptr, align 8
  store ptr %0, ptr %2, align 8
  ret void
}

; Function Attrs: mustprogress uwtable
define linkonce_odr void @_ZN5Eigen8internal11plain_arrayIdLi16ELi0ELi16EEC2Ev(ptr noundef nonnull align 16 dereferenceable(128) %0) unnamed_addr #5 comdat align 2 {
  %2 = alloca ptr, align 8
  store ptr %0, ptr %2, align 8
  call void @_ZN5Eigen8internal28check_static_allocation_sizeIdLi16EEEvv()
  ret void
}

; Function Attrs: mustprogress nounwind uwtable
define linkonce_odr void @_ZN5Eigen9DenseBaseINS_6MatrixIdLi4ELi4ELi0ELi4ELi4EEEEC2Ev(ptr noundef nonnull align 1 dereferenceable(1) %0) unnamed_addr #4 comdat align 2 {
  %2 = alloca ptr, align 8
  store ptr %0, ptr %2, align 8
  ret void
}

; Function Attrs: mustprogress uwtable
define linkonce_odr void @_ZN5Eigen8internal11plain_arrayIdLi4ELi0ELi16EEC2Ev(ptr noundef nonnull align 16 dereferenceable(32) %0) unnamed_addr #5 comdat align 2 {
  %2 = alloca ptr, align 8
  store ptr %0, ptr %2, align 8
  call void @_ZN5Eigen8internal28check_static_allocation_sizeIdLi4EEEvv()
  ret void
}

; Function Attrs: mustprogress nounwind uwtable
define linkonce_odr void @_ZN5Eigen9DenseBaseINS_6MatrixIdLi4ELi1ELi0ELi4ELi1EEEEC2Ev(ptr noundef nonnull align 1 dereferenceable(1) %0) unnamed_addr #4 comdat align 2 {
  %2 = alloca ptr, align 8
  store ptr %0, ptr %2, align 8
  ret void
}

; Function Attrs: mustprogress nounwind uwtable
define linkonce_odr void @_ZNSt12_Vector_baseIN5Eigen3MapINS0_6MatrixIdLin1ELin1ELi0ELin1ELin1EEELi0ENS0_6StrideILi0ELi0EEEEESaIS6_EE17_Vector_impl_dataC2Ev(ptr noundef nonnull align 8 dereferenceable(24) %0) unnamed_addr #4 comdat align 2 {
  %2 = alloca ptr, align 8
  store ptr %0, ptr %2, align 8
  %3 = load ptr, ptr %2, align 8
  %4 = getelementptr inbounds nuw %"struct.std::_Vector_base<Eigen::Map<Eigen::Matrix<double, -1, -1>>, std::allocator<Eigen::Map<Eigen::Matrix<double, -1, -1>>>>::_Vector_impl_data", ptr %3, i32 0, i32 0
  store ptr null, ptr %4, align 8
  %5 = getelementptr inbounds nuw %"struct.std::_Vector_base<Eigen::Map<Eigen::Matrix<double, -1, -1>>, std::allocator<Eigen::Map<Eigen::Matrix<double, -1, -1>>>>::_Vector_impl_data", ptr %3, i32 0, i32 1
  store ptr null, ptr %5, align 8
  %6 = getelementptr inbounds nuw %"struct.std::_Vector_base<Eigen::Map<Eigen::Matrix<double, -1, -1>>, std::allocator<Eigen::Map<Eigen::Matrix<double, -1, -1>>>>::_Vector_impl_data", ptr %3, i32 0, i32 2
  store ptr null, ptr %6, align 8
  ret void
}

; Function Attrs: mustprogress nounwind uwtable
define linkonce_odr void @_ZNSaIN5Eigen3MapINS_6MatrixIdLin1ELin1ELi0ELin1ELin1EEELi0ENS_6StrideILi0ELi0EEEEEEC2Ev(ptr noundef nonnull align 1 dereferenceable(1) %0) unnamed_addr #4 comdat align 2 {
  %2 = alloca ptr, align 8
  store ptr %0, ptr %2, align 8
  %3 = load ptr, ptr %2, align 8
  call void @_ZNSt15__new_allocatorIN5Eigen3MapINS0_6MatrixIdLin1ELin1ELi0ELin1ELin1EEELi0ENS0_6StrideILi0ELi0EEEEEEC2Ev(ptr noundef nonnull align 1 dereferenceable(1) %3) #3
  ret void
}

; Function Attrs: mustprogress nounwind uwtable
define linkonce_odr void @_ZNSt12_Vector_baseIN3g2o21BaseVariableSizedEdgeILi4EN5Eigen6MatrixIdLi4ELi1ELi0ELi4ELi1EEEE13HessianHelperESaIS6_EE17_Vector_impl_dataC2Ev(ptr noundef nonnull align 8 dereferenceable(24) %0) unnamed_addr #4 comdat align 2 {
  %2 = alloca ptr, align 8
  store ptr %0, ptr %2, align 8
  %3 = load ptr, ptr %2, align 8
  %4 = getelementptr inbounds nuw %"struct.std::_Vector_base<g2o::BaseVariableSizedEdge<4, Eigen::Matrix<double, 4, 1>>::HessianHelper, std::allocator<g2o::BaseVariableSizedEdge<4, Eigen::Matrix<double, 4, 1>>::HessianHelper>>::_Vector_impl_data", ptr %3, i32 0, i32 0
  store ptr null, ptr %4, align 8
  %5 = getelementptr inbounds nuw %"struct.std::_Vector_base<g2o::BaseVariableSizedEdge<4, Eigen::Matrix<double, 4, 1>>::HessianHelper, std::allocator<g2o::BaseVariableSizedEdge<4, Eigen::Matrix<double, 4, 1>>::HessianHelper>>::_Vector_impl_data", ptr %3, i32 0, i32 1
  store ptr null, ptr %5, align 8
  %6 = getelementptr inbounds nuw %"struct.std::_Vector_base<g2o::BaseVariableSizedEdge<4, Eigen::Matrix<double, 4, 1>>::HessianHelper, std::allocator<g2o::BaseVariableSizedEdge<4, Eigen::Matrix<double, 4, 1>>::HessianHelper>>::_Vector_impl_data", ptr %3, i32 0, i32 2
  store ptr null, ptr %6, align 8
  ret void
}

; Function Attrs: mustprogress nounwind uwtable
define linkonce_odr void @_ZNSaIN3g2o21BaseVariableSizedEdgeILi4EN5Eigen6MatrixIdLi4ELi1ELi0ELi4ELi1EEEE13HessianHelperEEC2Ev(ptr noundef nonnull align 1 dereferenceable(1) %0) unnamed_addr #4 comdat align 2 {
  %2 = alloca ptr, align 8
  store ptr %0, ptr %2, align 8
  %3 = load ptr, ptr %2, align 8
  call void @_ZNSt15__new_allocatorIN3g2o21BaseVariableSizedEdgeILi4EN5Eigen6MatrixIdLi4ELi1ELi0ELi4ELi1EEEE13HessianHelperEEC2Ev(ptr noundef nonnull align 1 dereferenceable(1) %3) #3
  ret void
}

; Function Attrs: mustprogress uwtable
define linkonce_odr void @_ZN5Eigen12DenseStorageIdLi16ELi4ELi4ELi0EEC2Ev(ptr noundef nonnull align 16 dereferenceable(128) %0) unnamed_addr #5 comdat align 2 {
  %2 = alloca ptr, align 8
  store ptr %0, ptr %2, align 8
  %3 = load ptr, ptr %2, align 8
  %4 = getelementptr inbounds nuw %"class.Eigen::DenseStorage.26", ptr %3, i32 0, i32 0
  call void @_ZN5Eigen8internal11plain_arrayIdLi16ELi0ELi16EEC2Ev(ptr noundef nonnull align 16 dereferenceable(128) %4)
  ret void
}

; Function Attrs: mustprogress uwtable
define linkonce_odr void @_ZN5Eigen10MatrixBaseINS_6MatrixIdLi4ELi4ELi0ELi4ELi4EEEEC2Ev(ptr noundef nonnull align 1 dereferenceable(1) %0) unnamed_addr #5 comdat align 2 {
  %2 = alloca ptr, align 8
  store ptr %0, ptr %2, align 8
  %3 = load ptr, ptr %2, align 8
  call void @_ZN5Eigen9DenseBaseINS_6MatrixIdLi4ELi4ELi0ELi4ELi4EEEEC2Ev(ptr noundef nonnull align 1 dereferenceable(1) %3)
  ret void
}

; Function Attrs: mustprogress uwtable
define linkonce_odr void @_ZN5Eigen12DenseStorageIdLi4ELi4ELi1ELi0EEC2Ev(ptr noundef nonnull align 16 dereferenceable(32) %0) unnamed_addr #5 comdat align 2 {
  %2 = alloca ptr, align 8
  store ptr %0, ptr %2, align 8
  %3 = load ptr, ptr %2, align 8
  %4 = getelementptr inbounds nuw %"class.Eigen::DenseStorage", ptr %3, i32 0, i32 0
  call void @_ZN5Eigen8internal11plain_arrayIdLi4ELi0ELi16EEC2Ev(ptr noundef nonnull align 16 dereferenceable(32) %4)
  ret void
}

; Function Attrs: mustprogress uwtable
define linkonce_odr void @_ZN5Eigen10MatrixBaseINS_6MatrixIdLi4ELi1ELi0ELi4ELi1EEEEC2Ev(ptr noundef nonnull align 1 dereferenceable(1) %0) unnamed_addr #5 comdat align 2 {
  %2 = alloca ptr, align 8
  store ptr %0, ptr %2, align 8
  %3 = load ptr, ptr %2, align 8
  call void @_ZN5Eigen9DenseBaseINS_6MatrixIdLi4ELi1ELi0ELi4ELi1EEEEC2Ev(ptr noundef nonnull align 1 dereferenceable(1) %3)
  ret void
}

; Function Attrs: mustprogress nounwind uwtable
define linkonce_odr void @_ZNSt12_Vector_baseIN5Eigen3MapINS0_6MatrixIdLin1ELin1ELi0ELin1ELin1EEELi0ENS0_6StrideILi0ELi0EEEEESaIS6_EE12_Vector_implC2Ev(ptr noundef nonnull align 8 dereferenceable(24) %0) unnamed_addr #4 comdat align 2 {
  %2 = alloca ptr, align 8
  store ptr %0, ptr %2, align 8
  %3 = load ptr, ptr %2, align 8
  call void @_ZNSaIN5Eigen3MapINS_6MatrixIdLin1ELin1ELi0ELin1ELin1EEELi0ENS_6StrideILi0ELi0EEEEEEC2Ev(ptr noundef nonnull align 1 dereferenceable(1) %3) #3
  call void @_ZNSt12_Vector_baseIN5Eigen3MapINS0_6MatrixIdLin1ELin1ELi0ELin1ELin1EEELi0ENS0_6StrideILi0ELi0EEEEESaIS6_EE17_Vector_impl_dataC2Ev(ptr noundef nonnull align 8 dereferenceable(24) %3) #3
  ret void
}

; Function Attrs: mustprogress nounwind uwtable
define linkonce_odr void @_ZNSt12_Vector_baseIN3g2o21BaseVariableSizedEdgeILi4EN5Eigen6MatrixIdLi4ELi1ELi0ELi4ELi1EEEE13HessianHelperESaIS6_EE12_Vector_implC2Ev(ptr noundef nonnull align 8 dereferenceable(24) %0) unnamed_addr #4 comdat align 2 {
  %2 = alloca ptr, align 8
  store ptr %0, ptr %2, align 8
  %3 = load ptr, ptr %2, align 8
  call void @_ZNSaIN3g2o21BaseVariableSizedEdgeILi4EN5Eigen6MatrixIdLi4ELi1ELi0ELi4ELi1EEEE13HessianHelperEEC2Ev(ptr noundef nonnull align 1 dereferenceable(1) %3) #3
  call void @_ZNSt12_Vector_baseIN3g2o21BaseVariableSizedEdgeILi4EN5Eigen6MatrixIdLi4ELi1ELi0ELi4ELi1EEEE13HessianHelperESaIS6_EE17_Vector_impl_dataC2Ev(ptr noundef nonnull align 8 dereferenceable(24) %3) #3
  ret void
}

; Function Attrs: mustprogress nounwind uwtable
define linkonce_odr void @_ZN5Eigen15PlainObjectBaseINS_6MatrixIdLi4ELi4ELi0ELi4ELi4EEEE22_check_template_paramsEv() #4 comdat align 2 {
  ret void
}

; Function Attrs: mustprogress uwtable
define linkonce_odr void @_ZN5Eigen15PlainObjectBaseINS_6MatrixIdLi4ELi4ELi0ELi4ELi4EEEEC2Ev(ptr noundef nonnull align 16 dereferenceable(128) %0) unnamed_addr #5 comdat align 2 {
  %2 = alloca ptr, align 8
  store ptr %0, ptr %2, align 8
  %3 = load ptr, ptr %2, align 8
  call void @_ZN5Eigen10MatrixBaseINS_6MatrixIdLi4ELi4ELi0ELi4ELi4EEEEC2Ev(ptr noundef nonnull align 1 dereferenceable(1) %3)
  %4 = getelementptr inbounds nuw %"class.Eigen::PlainObjectBase.19", ptr %3, i32 0, i32 0
  call void @_ZN5Eigen12DenseStorageIdLi16ELi4ELi4ELi0EEC2Ev(ptr noundef nonnull align 16 dereferenceable(128) %4)
  ret void
}

; Function Attrs: mustprogress nounwind uwtable
define linkonce_odr void @_ZN5Eigen15PlainObjectBaseINS_6MatrixIdLi4ELi1ELi0ELi4ELi1EEEE22_check_template_paramsEv() #4 comdat align 2 {
  ret void
}

; Function Attrs: mustprogress uwtable
define linkonce_odr void @_ZN5Eigen15PlainObjectBaseINS_6MatrixIdLi4ELi1ELi0ELi4ELi1EEEEC2Ev(ptr noundef nonnull align 16 dereferenceable(32) %0) unnamed_addr #5 comdat align 2 {
  %2 = alloca ptr, align 8
  store ptr %0, ptr %2, align 8
  %3 = load ptr, ptr %2, align 8
  call void @_ZN5Eigen10MatrixBaseINS_6MatrixIdLi4ELi1ELi0ELi4ELi1EEEEC2Ev(ptr noundef nonnull align 1 dereferenceable(1) %3)
  %4 = getelementptr inbounds nuw %"class.Eigen::PlainObjectBase", ptr %3, i32 0, i32 0
  call void @_ZN5Eigen12DenseStorageIdLi4ELi4ELi1ELi0EEC2Ev(ptr noundef nonnull align 16 dereferenceable(32) %4)
  ret void
}

; Function Attrs: mustprogress nounwind uwtable
define linkonce_odr void @_ZNSt12_Vector_baseIN5Eigen3MapINS0_6MatrixIdLin1ELin1ELi0ELin1ELin1EEELi0ENS0_6StrideILi0ELi0EEEEESaIS6_EEC2Ev(ptr noundef nonnull align 8 dereferenceable(24) %0) unnamed_addr #4 comdat align 2 {
  %2 = alloca ptr, align 8
  store ptr %0, ptr %2, align 8
  %3 = load ptr, ptr %2, align 8
  %4 = getelementptr inbounds nuw %"struct.std::_Vector_base.34", ptr %3, i32 0, i32 0
  call void @_ZNSt12_Vector_baseIN5Eigen3MapINS0_6MatrixIdLin1ELin1ELi0ELin1ELin1EEELi0ENS0_6StrideILi0ELi0EEEEESaIS6_EE12_Vector_implC2Ev(ptr noundef nonnull align 8 dereferenceable(24) %4) #3
  ret void
}

; Function Attrs: mustprogress nounwind uwtable
define linkonce_odr void @_ZNSt12_Vector_baseIN3g2o21BaseVariableSizedEdgeILi4EN5Eigen6MatrixIdLi4ELi1ELi0ELi4ELi1EEEE13HessianHelperESaIS6_EEC2Ev(ptr noundef nonnull align 8 dereferenceable(24) %0) unnamed_addr #4 comdat align 2 {
  %2 = alloca ptr, align 8
  store ptr %0, ptr %2, align 8
  %3 = load ptr, ptr %2, align 8
  %4 = getelementptr inbounds nuw %"struct.std::_Vector_base.29", ptr %3, i32 0, i32 0
  call void @_ZNSt12_Vector_baseIN3g2o21BaseVariableSizedEdgeILi4EN5Eigen6MatrixIdLi4ELi1ELi0ELi4ELi1EEEE13HessianHelperESaIS6_EE12_Vector_implC2Ev(ptr noundef nonnull align 8 dereferenceable(24) %4) #3
  ret void
}

; Function Attrs: mustprogress uwtable
define linkonce_odr void @_ZN5Eigen6MatrixIdLi4ELi4ELi0ELi4ELi4EEC2Ev(ptr noundef nonnull align 16 dereferenceable(128) %0) unnamed_addr #5 comdat align 2 {
  %2 = alloca ptr, align 8
  store ptr %0, ptr %2, align 8
  %3 = load ptr, ptr %2, align 8
  call void @_ZN5Eigen15PlainObjectBaseINS_6MatrixIdLi4ELi4ELi0ELi4ELi4EEEEC2Ev(ptr noundef nonnull align 16 dereferenceable(128) %3)
  call void @_ZN5Eigen15PlainObjectBaseINS_6MatrixIdLi4ELi4ELi0ELi4ELi4EEEE22_check_template_paramsEv()
  ret void
}

; Function Attrs: mustprogress uwtable
define linkonce_odr void @_ZN5Eigen6MatrixIdLi4ELi1ELi0ELi4ELi1EEC2Ev(ptr noundef nonnull align 16 dereferenceable(32) %0) unnamed_addr #5 comdat align 2 {
  %2 = alloca ptr, align 8
  store ptr %0, ptr %2, align 8
  %3 = load ptr, ptr %2, align 8
  call void @_ZN5Eigen15PlainObjectBaseINS_6MatrixIdLi4ELi1ELi0ELi4ELi1EEEEC2Ev(ptr noundef nonnull align 16 dereferenceable(32) %3)
  call void @_ZN5Eigen15PlainObjectBaseINS_6MatrixIdLi4ELi1ELi0ELi4ELi1EEEE22_check_template_paramsEv()
  ret void
}

; Function Attrs: mustprogress nounwind uwtable
define linkonce_odr void @_ZNSt6vectorIN5Eigen3MapINS0_6MatrixIdLin1ELin1ELi0ELin1ELin1EEELi0ENS0_6StrideILi0ELi0EEEEESaIS6_EEC2Ev(ptr noundef nonnull align 8 dereferenceable(24) %0) unnamed_addr #4 comdat align 2 {
  %2 = alloca ptr, align 8
  store ptr %0, ptr %2, align 8
  %3 = load ptr, ptr %2, align 8
  call void @_ZNSt12_Vector_baseIN5Eigen3MapINS0_6MatrixIdLin1ELin1ELi0ELin1ELin1EEELi0ENS0_6StrideILi0ELi0EEEEESaIS6_EEC2Ev(ptr noundef nonnull align 8 dereferenceable(24) %3) #3
  ret void
}

; Function Attrs: mustprogress nounwind uwtable
define linkonce_odr void @_ZNSt6vectorIN3g2o21BaseVariableSizedEdgeILi4EN5Eigen6MatrixIdLi4ELi1ELi0ELi4ELi1EEEE13HessianHelperESaIS6_EEC2Ev(ptr noundef nonnull align 8 dereferenceable(24) %0) unnamed_addr #4 comdat align 2 {
  %2 = alloca ptr, align 8
  store ptr %0, ptr %2, align 8
  %3 = load ptr, ptr %2, align 8
  call void @_ZNSt12_Vector_baseIN3g2o21BaseVariableSizedEdgeILi4EN5Eigen6MatrixIdLi4ELi1ELi0ELi4ELi1EEEE13HessianHelperESaIS6_EEC2Ev(ptr noundef nonnull align 8 dereferenceable(24) %3) #3
  ret void
}

; Function Attrs: mustprogress uwtable
define linkonce_odr void @_ZN3g2o8BaseEdgeILi4EN5Eigen6MatrixIdLi4ELi1ELi0ELi4ELi1EEEEC2Ev(ptr noundef nonnull align 16 dereferenceable(368) %0) unnamed_addr #5 comdat align 2 personality ptr @__gxx_personality_v0 {
  %2 = alloca ptr, align 8
  %3 = alloca ptr, align 8
  %4 = alloca i32, align 4
  store ptr %0, ptr %2, align 8
  %5 = load ptr, ptr %2, align 8
  call void @_ZN3g2o16OptimizableGraph4EdgeC2Ev(ptr noundef nonnull align 8 dereferenceable(176) %5)
  store ptr getelementptr inbounds inrange(-16, 224) ({ [30 x ptr], [4 x ptr] }, ptr @_ZTVN3g2o8BaseEdgeILi4EN5Eigen6MatrixIdLi4ELi1ELi0ELi4ELi1EEEEE, i32 0, i32 0, i32 2), ptr %5, align 16
  %6 = getelementptr inbounds i8, ptr %5, i64 40
  store ptr getelementptr inbounds inrange(-16, 16) ({ [30 x ptr], [4 x ptr] }, ptr @_ZTVN3g2o8BaseEdgeILi4EN5Eigen6MatrixIdLi4ELi1ELi0ELi4ELi1EEEEE, i32 0, i32 1, i32 2), ptr %6, align 8
  %7 = getelementptr inbounds nuw %"class.g2o::BaseEdge", ptr %5, i32 0, i32 1
  invoke void @_ZN5Eigen6MatrixIdLi4ELi1ELi0ELi4ELi1EEC2Ev(ptr noundef nonnull align 16 dereferenceable(32) %7)
          to label %8 unwind label %14

8:                                                ; preds = %1
  %9 = getelementptr inbounds nuw %"class.g2o::BaseEdge", ptr %5, i32 0, i32 2
  invoke void @_ZN5Eigen6MatrixIdLi4ELi4ELi0ELi4ELi4EEC2Ev(ptr noundef nonnull align 16 dereferenceable(128) %9)
          to label %10 unwind label %14

10:                                               ; preds = %8
  %11 = getelementptr inbounds nuw %"class.g2o::BaseEdge", ptr %5, i32 0, i32 3
  invoke void @_ZN5Eigen6MatrixIdLi4ELi1ELi0ELi4ELi1EEC2Ev(ptr noundef nonnull align 16 dereferenceable(32) %11)
          to label %12 unwind label %14

12:                                               ; preds = %10
  %13 = getelementptr inbounds nuw %"class.g2o::OptimizableGraph::Edge", ptr %5, i32 0, i32 2
  store i32 4, ptr %13, align 8
  ret void

14:                                               ; preds = %10, %8, %1
  %15 = landingpad { ptr, i32 }
          cleanup
  %16 = extractvalue { ptr, i32 } %15, 0
  store ptr %16, ptr %3, align 8
  %17 = extractvalue { ptr, i32 } %15, 1
  store i32 %17, ptr %4, align 4
  call void @_ZN3g2o16OptimizableGraph4EdgeD2Ev(ptr noundef nonnull align 8 dereferenceable(176) %5) #3
  br label %18

18:                                               ; preds = %14
  %19 = load ptr, ptr %3, align 8
  %20 = load i32, ptr %4, align 4
  %21 = insertvalue { ptr, i32 } poison, ptr %19, 0
  %22 = insertvalue { ptr, i32 } %21, i32 %20, 1
  resume { ptr, i32 } %22
}

; Function Attrs: mustprogress uwtable
define linkonce_odr void @_ZN3g2o21BaseVariableSizedEdgeILi4EN5Eigen6MatrixIdLi4ELi1ELi0ELi4ELi1EEEEC2Ev(ptr noundef nonnull align 16 dereferenceable(416) %0) unnamed_addr #5 comdat align 2 {
  %2 = alloca ptr, align 8
  store ptr %0, ptr %2, align 8
  %3 = load ptr, ptr %2, align 8
  call void @_ZN3g2o8BaseEdgeILi4EN5Eigen6MatrixIdLi4ELi1ELi0ELi4ELi1EEEEC2Ev(ptr noundef nonnull align 16 dereferenceable(368) %3)
  store ptr getelementptr inbounds inrange(-16, 232) ({ [31 x ptr], [4 x ptr] }, ptr @_ZTVN3g2o21BaseVariableSizedEdgeILi4EN5Eigen6MatrixIdLi4ELi1ELi0ELi4ELi1EEEEE, i32 0, i32 0, i32 2), ptr %3, align 16
  %4 = getelementptr inbounds i8, ptr %3, i64 40
  store ptr getelementptr inbounds inrange(-16, 16) ({ [31 x ptr], [4 x ptr] }, ptr @_ZTVN3g2o21BaseVariableSizedEdgeILi4EN5Eigen6MatrixIdLi4ELi1ELi0ELi4ELi1EEEEE, i32 0, i32 1, i32 2), ptr %4, align 8
  %5 = getelementptr inbounds nuw %"class.g2o::BaseVariableSizedEdge", ptr %3, i32 0, i32 1
  call void @_ZNSt6vectorIN3g2o21BaseVariableSizedEdgeILi4EN5Eigen6MatrixIdLi4ELi1ELi0ELi4ELi1EEEE13HessianHelperESaIS6_EEC2Ev(ptr noundef nonnull align 8 dereferenceable(24) %5) #3
  %6 = getelementptr inbounds nuw %"class.g2o::BaseVariableSizedEdge", ptr %3, i32 0, i32 2
  call void @_ZNSt6vectorIN5Eigen3MapINS0_6MatrixIdLin1ELin1ELi0ELin1ELin1EEELi0ENS0_6StrideILi0ELi0EEEEESaIS6_EEC2Ev(ptr noundef nonnull align 8 dereferenceable(24) %6) #3
  ret void
}

; Function Attrs: mustprogress uwtable
define void @_ZN3g2o18EdgeSE2TwoPointsXYC2Ev(ptr noundef nonnull align 16 dereferenceable(416) %0) unnamed_addr #5 align 2 personality ptr @__gxx_personality_v0 {
  %2 = alloca ptr, align 8
  %3 = alloca ptr, align 8
  %4 = alloca i32, align 4
  store ptr %0, ptr %2, align 8
  %5 = load ptr, ptr %2, align 8
  call void @_ZN3g2o21BaseVariableSizedEdgeILi4EN5Eigen6MatrixIdLi4ELi1ELi0ELi4ELi1EEEEC2Ev(ptr noundef nonnull align 16 dereferenceable(416) %5)
  store ptr getelementptr inbounds inrange(-16, 232) ({ [31 x ptr], [4 x ptr] }, ptr @_ZTVN3g2o18EdgeSE2TwoPointsXYE, i32 0, i32 0, i32 2), ptr %5, align 16
  %6 = getelementptr inbounds i8, ptr %5, i64 40
  store ptr getelementptr inbounds inrange(-16, 16) ({ [31 x ptr], [4 x ptr] }, ptr @_ZTVN3g2o18EdgeSE2TwoPointsXYE, i32 0, i32 1, i32 2), ptr %6, align 8
  %7 = load ptr, ptr %5, align 16
  %8 = getelementptr inbounds ptr, ptr %7, i64 3
  %9 = load ptr, ptr %8, align 8
  invoke void %9(ptr noundef nonnull align 16 dereferenceable(416) %5, i64 noundef 3)
          to label %10 unwind label %11

10:                                               ; preds = %1
  ret void

11:                                               ; preds = %1
  %12 = landingpad { ptr, i32 }
          cleanup
  %13 = extractvalue { ptr, i32 } %12, 0
  store ptr %13, ptr %3, align 8
  %14 = extractvalue { ptr, i32 } %12, 1
  store i32 %14, ptr %4, align 4
  call void @_ZN3g2o21BaseVariableSizedEdgeILi4EN5Eigen6MatrixIdLi4ELi1ELi0ELi4ELi1EEEED2Ev(ptr noundef nonnull align 16 dereferenceable(416) %5) #3
  br label %15

15:                                               ; preds = %11
  %16 = load ptr, ptr %3, align 8
  %17 = load i32, ptr %4, align 4
  %18 = insertvalue { ptr, i32 } poison, ptr %16, 0
  %19 = insertvalue { ptr, i32 } %18, i32 %17, 1
  resume { ptr, i32 } %19
}