; Function Attrs: mustprogress uwtable
define void @_ZN3g2o18EdgeSE2TwoPointsXYC2Ev(ptr noundef nonnull align 16 dereferenceable(416) %0) unnamed_addr #3 align 2 personality ptr @__gxx_personality_v0 {
  tail call void @_ZN3g2o16OptimizableGraph4EdgeC2Ev(ptr noundef nonnull align 8 dereferenceable(176) %0)
  %2 = getelementptr inbounds i8, ptr %0, i64 40
  %3 = getelementptr inbounds nuw i8, ptr %0, i64 56
  store i32 4, ptr %3, align 8
  %4 = getelementptr inbounds nuw i8, ptr %0, i64 368
  tail call void @llvm.memset.p0.i64(ptr noundef nonnull align 16 dereferenceable(48) %4, i8 0, i64 48, i1 false)
  store ptr getelementptr inbounds inrange(-16, 232) (i8, ptr @_ZTVN3g2o18EdgeSE2TwoPointsXYE, i64 16), ptr %0, align 16
  store ptr getelementptr inbounds inrange(-16, 16) (i8, ptr @_ZTVN3g2o18EdgeSE2TwoPointsXYE, i64 264), ptr %2, align 8
  invoke void @_ZN3g2o21BaseVariableSizedEdgeILi4EN5Eigen6MatrixIdLi4ELi1ELi0ELi4ELi1EEEE6resizeEm(ptr noundef nonnull align 16 dereferenceable(416) %0, i64 noundef 3)
          to label %5 unwind label %6

5:                                                ; preds = %1
  ret void

6:                                                ; preds = %1
  %7 = landingpad { ptr, i32 }
          cleanup
  tail call void @_ZN3g2o21BaseVariableSizedEdgeILi4EN5Eigen6MatrixIdLi4ELi1ELi0ELi4ELi1EEEED2Ev(ptr noundef nonnull align 16 dereferenceable(416) %0) #28
  resume { ptr, i32 } %7
}